target datalayout = "e-m:e-p270:32:32-p271:32:32-p272:64:64-i64:64-i128:128-f80:128-n8:16:32:64-S128"
target triple = "x86_64-pc-linux-gnu"

%struct._YR_ARENA_PAGE = type { ptr, ptr, i64, i64, ptr, ptr, ptr, ptr }
%struct._YR_ARENA = type { i32, ptr, ptr }
%struct.__va_list_tag = type { i32, i32, ptr, ptr }
%struct._YR_RELOC = type { i32, ptr }

@.str = private unnamed_addr constant [13 x i8] c"page != NULL\00", align 1
@.str.1 = private unnamed_addr constant [114 x i8] c"generated/home/dtcxzyw/WorkSpace/Projects/compilers/llvm-opt-benchmark/bench/clamav/clamav/libclamav/yara_arena.c\00", align 1
@__PRETTY_FUNCTION__._yr_arena_make_relocatable = private unnamed_addr constant [75 x i8] c"int _yr_arena_make_relocatable(YR_ARENA *, void *, struct __va_list_tag *)\00", align 1
@.str.2 = private unnamed_addr constant [53 x i8] c"base_offset + offset <= page->used - sizeof(int64_t)\00", align 1

; Function Attrs: nounwind uwtable
define ptr @_yr_arena_page_for_address(ptr noundef %0, ptr noundef %1) #0 {
  %3 = alloca ptr, align 8
  %4 = alloca ptr, align 8
  %5 = alloca ptr, align 8
  %6 = alloca ptr, align 8
  store ptr %0, ptr %4, align 8
  store ptr %1, ptr %5, align 8
  %7 = load ptr, ptr %4, align 8
  %8 = getelementptr inbounds %struct._YR_ARENA, ptr %7, i32 0, i32 2
  %9 = load ptr, ptr %8, align 8
  store ptr %9, ptr %6, align 8
  %10 = load ptr, ptr %6, align 8
  %11 = icmp ne ptr %10, null
  br i1 %11, label %12, label %30

12:                                               ; preds = %2
  %13 = load ptr, ptr %5, align 8
  %14 = load ptr, ptr %6, align 8
  %15 = getelementptr inbounds %struct._YR_ARENA_PAGE, ptr %14, i32 0, i32 1
  %16 = load ptr, ptr %15, align 8
  %17 = icmp uge ptr %13, %16
  br i1 %17, label %18, label %30

18:                                               ; preds = %12
  %19 = load ptr, ptr %5, align 8
  %20 = load ptr, ptr %6, align 8
  %21 = getelementptr inbounds %struct._YR_ARENA_PAGE, ptr %20, i32 0, i32 1
  %22 = load ptr, ptr %21, align 8
  %23 = load ptr, ptr %6, align 8
  %24 = getelementptr inbounds %struct._YR_ARENA_PAGE, ptr %23, i32 0, i32 3
  %25 = load i64, ptr %24, align 8
  %26 = getelementptr inbounds i8, ptr %22, i64 %25
  %27 = icmp ult ptr %19, %26
  br i1 %27, label %28, label %30

28:                                               ; preds = %18
  %29 = load ptr, ptr %6, align 8
  store ptr %29, ptr %3, align 8
  br label %60

30:                                               ; preds = %18, %12, %2
  %31 = load ptr, ptr %4, align 8
  %32 = getelementptr inbounds %struct._YR_ARENA, ptr %31, i32 0, i32 1
  %33 = load ptr, ptr %32, align 8
  store ptr %33, ptr %6, align 8
  br label %34

34:                                               ; preds = %55, %30
  %35 = load ptr, ptr %6, align 8
  %36 = icmp ne ptr %35, null
  br i1 %36, label %37, label %59

37:                                               ; preds = %34
  %38 = load ptr, ptr %5, align 8
  %39 = load ptr, ptr %6, align 8
  %40 = getelementptr inbounds %struct._YR_ARENA_PAGE, ptr %39, i32 0, i32 1
  %41 = load ptr, ptr %40, align 8
  %42 = icmp uge ptr %38, %41
  br i1 %42, label %43, label %55

43:                                               ; preds = %37
  %44 = load ptr, ptr %5, align 8
  %45 = load ptr, ptr %6, align 8
  %46 = getelementptr inbounds %struct._YR_ARENA_PAGE, ptr %45, i32 0, i32 1
  %47 = load ptr, ptr %46, align 8
  %48 = load ptr, ptr %6, align 8
  %49 = getelementptr inbounds %struct._YR_ARENA_PAGE, ptr %48, i32 0, i32 3
  %50 = load i64, ptr %49, align 8
  %51 = getelementptr inbounds i8, ptr %47, i64 %50
  %52 = icmp ult ptr %44, %51
  br i1 %52, label %53, label %55

53:                                               ; preds = %43
  %54 = load ptr, ptr %6, align 8
  store ptr %54, ptr %3, align 8
  br label %60

55:                                               ; preds = %43, %37
  %56 = load ptr, ptr %6, align 8
  %57 = getelementptr inbounds %struct._YR_ARENA_PAGE, ptr %56, i32 0, i32 6
  %58 = load ptr, ptr %57, align 8
  store ptr %58, ptr %6, align 8
  br label %34

59:                                               ; preds = %34
  store ptr null, ptr %3, align 8
  br label %60

60:                                               ; preds = %59, %53, %28
  %61 = load ptr, ptr %3, align 8
  ret ptr %61
}

; Function Attrs: nounwind uwtable
define i32 @_yr_arena_make_relocatable(ptr noundef %0, ptr noundef %1, ptr noundef %2) #0 {
  %4 = alloca i32, align 4
  %5 = alloca ptr, align 8
  %6 = alloca ptr, align 8
  %7 = alloca ptr, align 8
  %8 = alloca ptr, align 8
  %9 = alloca ptr, align 8
  %10 = alloca i64, align 8
  %11 = alloca i64, align 8
  %12 = alloca i32, align 4
  store ptr %0, ptr %5, align 8
  store ptr %1, ptr %6, align 8
  store ptr %2, ptr %7, align 8
  store i32 0, ptr %12, align 4
  %13 = load ptr, ptr %5, align 8
  %14 = load ptr, ptr %6, align 8
  %15 = call ptr @_yr_arena_page_for_address(ptr noundef %13, ptr noundef %14)
  store ptr %15, ptr %9, align 8
  %16 = load ptr, ptr %9, align 8
  %17 = icmp ne ptr %16, null
  br i1 %17, label %18, label %19

18:                                               ; preds = %3
  br label %20

19:                                               ; preds = %3
  call void @__assert_fail(ptr noundef @.str, ptr noundef @.str.1, i32 noundef 178, ptr noundef @__PRETTY_FUNCTION__._yr_arena_make_relocatable) #9
  unreachable

20:                                               ; preds = %18
  %21 = load ptr, ptr %6, align 8
  %22 = load ptr, ptr %9, align 8
  %23 = getelementptr inbounds %struct._YR_ARENA_PAGE, ptr %22, i32 0, i32 1
  %24 = load ptr, ptr %23, align 8
  %25 = ptrtoint ptr %21 to i64
  %26 = ptrtoint ptr %24 to i64
  %27 = sub i64 %25, %26
  store i64 %27, ptr %11, align 8
  %28 = load ptr, ptr %7, align 8
  %29 = getelementptr inbounds %struct.__va_list_tag, ptr %28, i32 0, i32 0
  %30 = load i32, ptr %29, align 8
  %31 = icmp ule i32 %30, 40
  br i1 %31, label %32, label %37

32:                                               ; preds = %20
  %33 = getelementptr inbounds %struct.__va_list_tag, ptr %28, i32 0, i32 3
  %34 = load ptr, ptr %33, align 8
  %35 = getelementptr i8, ptr %34, i32 %30
  %36 = add i32 %30, 8
  store i32 %36, ptr %29, align 8
  br label %41

37:                                               ; preds = %20
  %38 = getelementptr inbounds %struct.__va_list_tag, ptr %28, i32 0, i32 2
  %39 = load ptr, ptr %38, align 8
  %40 = getelementptr i8, ptr %39, i32 8
  store ptr %40, ptr %38, align 8
  br label %41

41:                                               ; preds = %37, %32
  %42 = phi ptr [ %35, %32 ], [ %39, %37 ]
  %43 = load i64, ptr %42, align 8
  store i64 %43, ptr %10, align 8
  br label %44

44:                                               ; preds = %108, %41
  %45 = load i64, ptr %10, align 8
  %46 = icmp ne i64 %45, -1
  br i1 %46, label %47, label %111

47:                                               ; preds = %44
  %48 = load i64, ptr %11, align 8
  %49 = load i64, ptr %10, align 8
  %50 = add i64 %48, %49
  %51 = load ptr, ptr %9, align 8
  %52 = getelementptr inbounds %struct._YR_ARENA_PAGE, ptr %51, i32 0, i32 3
  %53 = load i64, ptr %52, align 8
  %54 = sub i64 %53, 8
  %55 = icmp ule i64 %50, %54
  br i1 %55, label %56, label %57

56:                                               ; preds = %47
  br label %58

57:                                               ; preds = %47
  call void @__assert_fail(ptr noundef @.str.2, ptr noundef @.str.1, i32 noundef 185, ptr noundef @__PRETTY_FUNCTION__._yr_arena_make_relocatable) #9
  unreachable

58:                                               ; preds = %56
  %59 = call ptr @cli_max_malloc(i64 noundef 16)
  store ptr %59, ptr %8, align 8
  %60 = load ptr, ptr %8, align 8
  %61 = icmp eq ptr %60, null
  br i1 %61, label %62, label %63

62:                                               ; preds = %58
  store i32 1, ptr %4, align 4
  br label %113

63:                                               ; preds = %58
  %64 = load i64, ptr %11, align 8
  %65 = load i64, ptr %10, align 8
  %66 = add i64 %64, %65
  %67 = trunc i64 %66 to i32
  %68 = load ptr, ptr %8, align 8
  %69 = getelementptr inbounds %struct._YR_RELOC, ptr %68, i32 0, i32 0
  store i32 %67, ptr %69, align 8
  %70 = load ptr, ptr %8, align 8
  %71 = getelementptr inbounds %struct._YR_RELOC, ptr %70, i32 0, i32 1
  store ptr null, ptr %71, align 8
  %72 = load ptr, ptr %9, align 8
  %73 = getelementptr inbounds %struct._YR_ARENA_PAGE, ptr %72, i32 0, i32 4
  %74 = load ptr, ptr %73, align 8
  %75 = icmp eq ptr %74, null
  br i1 %75, label %76, label %80

76:                                               ; preds = %63
  %77 = load ptr, ptr %8, align 8
  %78 = load ptr, ptr %9, align 8
  %79 = getelementptr inbounds %struct._YR_ARENA_PAGE, ptr %78, i32 0, i32 4
  store ptr %77, ptr %79, align 8
  br label %80

80:                                               ; preds = %76, %63
  %81 = load ptr, ptr %9, align 8
  %82 = getelementptr inbounds %struct._YR_ARENA_PAGE, ptr %81, i32 0, i32 5
  %83 = load ptr, ptr %82, align 8
  %84 = icmp ne ptr %83, null
  br i1 %84, label %85, label %91

85:                                               ; preds = %80
  %86 = load ptr, ptr %8, align 8
  %87 = load ptr, ptr %9, align 8
  %88 = getelementptr inbounds %struct._YR_ARENA_PAGE, ptr %87, i32 0, i32 5
  %89 = load ptr, ptr %88, align 8
  %90 = getelementptr inbounds %struct._YR_RELOC, ptr %89, i32 0, i32 1
  store ptr %86, ptr %90, align 8
  br label %91

91:                                               ; preds = %85, %80
  %92 = load ptr, ptr %8, align 8
  %93 = load ptr, ptr %9, align 8
  %94 = getelementptr inbounds %struct._YR_ARENA_PAGE, ptr %93, i32 0, i32 5
  store ptr %92, ptr %94, align 8
  %95 = load ptr, ptr %7, align 8
  %96 = getelementptr inbounds %struct.__va_list_tag, ptr %95, i32 0, i32 0
  %97 = load i32, ptr %96, align 8
  %98 = icmp ule i32 %97, 40
  br i1 %98, label %99, label %104

99:                                               ; preds = %91
  %100 = getelementptr inbounds %struct.__va_list_tag, ptr %95, i32 0, i32 3
  %101 = load ptr, ptr %100, align 8
  %102 = getelementptr i8, ptr %101, i32 %97
  %103 = add i32 %97, 8
  store i32 %103, ptr %96, align 8
  br label %108

104:                                              ; preds = %91
  %105 = getelementptr inbounds %struct.__va_list_tag, ptr %95, i32 0, i32 2
  %106 = load ptr, ptr %105, align 8
  %107 = getelementptr i8, ptr %106, i32 8
  store ptr %107, ptr %105, align 8
  br label %108

108:                                              ; preds = %104, %99
  %109 = phi ptr [ %102, %99 ], [ %106, %104 ]
  %110 = load i64, ptr %109, align 8
  store i64 %110, ptr %10, align 8
  br label %44

111:                                              ; preds = %44
  %112 = load i32, ptr %12, align 4
  store i32 %112, ptr %4, align 4
  br label %113

113:                                              ; preds = %111, %62
  %114 = load i32, ptr %4, align 4
  ret i32 %114
}