; Function Attrs: nounwind uwtable
define noundef i32 @_yr_arena_make_relocatable(ptr nocapture noundef readonly %0, ptr noundef %1, ptr nocapture noundef %2) local_unnamed_addr #0 {
  %4 = getelementptr inbounds i8, ptr %0, i64 16
  %5 = load ptr, ptr %4, align 8
  %.not.i = icmp eq ptr %5, null
  br i1 %.not.i, label %14, label %6

6:                                                ; preds = %3
  %7 = getelementptr inbounds i8, ptr %5, i64 8
  %8 = load ptr, ptr %7, align 8
  %.not23.i = icmp ugt ptr %8, %1
  br i1 %.not23.i, label %14, label %9

9:                                                ; preds = %6
  %10 = getelementptr inbounds i8, ptr %5, i64 24
  %11 = load i64, ptr %10, align 8
  %12 = getelementptr inbounds i8, ptr %8, i64 %11
  %13 = icmp ugt ptr %12, %1
  br i1 %13, label %_yr_arena_page_for_address.exit, label %14

14:                                               ; preds = %9, %6, %3
  %15 = getelementptr inbounds i8, ptr %0, i64 8
  %.026.i = load ptr, ptr %15, align 8
  %.not2427.i = icmp eq ptr %.026.i, null
  br i1 %.not2427.i, label %.loopexit, label %.lr.ph.i

.lr.ph.i:                                         ; preds = %14, %23
  %.028.i = phi ptr [ %.0.i, %23 ], [ %.026.i, %14 ]
  %16 = getelementptr inbounds i8, ptr %.028.i, i64 8
  %17 = load ptr, ptr %16, align 8
  %.not25.i = icmp ugt ptr %17, %1
  br i1 %.not25.i, label %23, label %18

18:                                               ; preds = %.lr.ph.i
  %19 = getelementptr inbounds i8, ptr %.028.i, i64 24
  %20 = load i64, ptr %19, align 8
  %21 = getelementptr inbounds i8, ptr %17, i64 %20
  %22 = icmp ugt ptr %21, %1
  br i1 %22, label %_yr_arena_page_for_address.exit, label %23

23:                                               ; preds = %18, %.lr.ph.i
  %24 = getelementptr inbounds i8, ptr %.028.i, i64 48
  %.0.i = load ptr, ptr %24, align 8
  %.not24.i = icmp eq ptr %.0.i, null
  br i1 %.not24.i, label %.loopexit, label %.lr.ph.i

.loopexit:                                        ; preds = %23, %14
  tail call void @__assert_fail(ptr noundef nonnull @.str, ptr noundef nonnull @.str.1, i32 noundef 178, ptr noundef nonnull @__PRETTY_FUNCTION__._yr_arena_make_relocatable) #12
  unreachable

_yr_arena_page_for_address.exit:                  ; preds = %18, %9
  %25 = phi ptr [ %8, %9 ], [ %17, %18 ]
  %.018.i = phi ptr [ %5, %9 ], [ %.028.i, %18 ]
  %26 = ptrtoint ptr %1 to i64
  %27 = ptrtoint ptr %25 to i64
  %28 = sub i64 %26, %27
  %29 = load i32, ptr %2, align 8
  %30 = icmp ult i32 %29, 41
  br i1 %30, label %31, label %37

31:                                               ; preds = %_yr_arena_page_for_address.exit
  %32 = getelementptr inbounds i8, ptr %2, i64 16
  %33 = load ptr, ptr %32, align 8
  %34 = zext nneg i32 %29 to i64
  %35 = getelementptr i8, ptr %33, i64 %34
  %36 = add nuw nsw i32 %29, 8
  store i32 %36, ptr %2, align 8
  br label %41

37:                                               ; preds = %_yr_arena_page_for_address.exit
  %38 = getelementptr inbounds i8, ptr %2, i64 8
  %39 = load ptr, ptr %38, align 8
  %40 = getelementptr i8, ptr %39, i64 8
  store ptr %40, ptr %38, align 8
  br label %41

41:                                               ; preds = %37, %31
  %42 = phi ptr [ %35, %31 ], [ %39, %37 ]
  %.02538 = load i64, ptr %42, align 8
  %.not3239 = icmp eq i64 %.02538, -1
  br i1 %.not3239, label %._crit_edge, label %.lr.ph

.lr.ph:                                           ; preds = %41
  %43 = getelementptr inbounds i8, ptr %.018.i, i64 24
  %44 = getelementptr inbounds i8, ptr %.018.i, i64 32
  %45 = getelementptr inbounds i8, ptr %.018.i, i64 40
  %46 = getelementptr inbounds i8, ptr %2, i64 8
  %47 = getelementptr inbounds i8, ptr %2, i64 16
  br label %48

48:                                               ; preds = %.lr.ph, %77
  %.02540 = phi i64 [ %.02538, %.lr.ph ], [ %.025, %77 ]
  %49 = add i64 %.02540, %28
  %50 = load i64, ptr %43, align 8
  %51 = add i64 %50, -8
  %.not33 = icmp ugt i64 %49, %51
  br i1 %.not33, label %52, label %53

52:                                               ; preds = %48
  tail call void @__assert_fail(ptr noundef nonnull @.str.2, ptr noundef nonnull @.str.1, i32 noundef 185, ptr noundef nonnull @__PRETTY_FUNCTION__._yr_arena_make_relocatable) #12
  unreachable

53:                                               ; preds = %48
  %54 = tail call ptr @cli_max_malloc(i64 noundef 16) #11
  %55 = icmp eq ptr %54, null
  br i1 %55, label %._crit_edge, label %56

56:                                               ; preds = %53
  %57 = trunc i64 %49 to i32
  store i32 %57, ptr %54, align 8
  %58 = getelementptr inbounds i8, ptr %54, i64 8
  store ptr null, ptr %58, align 8
  %59 = load ptr, ptr %44, align 8
  %60 = icmp eq ptr %59, null
  br i1 %60, label %61, label %62

61:                                               ; preds = %56
  store ptr %54, ptr %44, align 8
  br label %62

62:                                               ; preds = %61, %56
  %63 = load ptr, ptr %45, align 8
  %.not34 = icmp eq ptr %63, null
  br i1 %.not34, label %66, label %64

64:                                               ; preds = %62
  %65 = getelementptr inbounds i8, ptr %63, i64 8
  store ptr %54, ptr %65, align 8
  br label %66

66:                                               ; preds = %64, %62
  store ptr %54, ptr %45, align 8
  %67 = load i32, ptr %2, align 8
  %68 = icmp ult i32 %67, 41
  br i1 %68, label %69, label %74

69:                                               ; preds = %66
  %70 = load ptr, ptr %47, align 8
  %71 = zext nneg i32 %67 to i64
  %72 = getelementptr i8, ptr %70, i64 %71
  %73 = add nuw nsw i32 %67, 8
  store i32 %73, ptr %2, align 8
  br label %77

74:                                               ; preds = %66
  %75 = load ptr, ptr %46, align 8
  %76 = getelementptr i8, ptr %75, i64 8
  store ptr %76, ptr %46, align 8
  br label %77

77:                                               ; preds = %74, %69
  %78 = phi ptr [ %72, %69 ], [ %75, %74 ]
  %.025 = load i64, ptr %78, align 8
  %.not32 = icmp eq i64 %.025, -1
  br i1 %.not32, label %._crit_edge, label %48

._crit_edge:                                      ; preds = %53, %77, %41
  %.0 = phi i32 [ 0, %41 ], [ 0, %77 ], [ 1, %53 ]
  ret i32 %.0
}